target datalayout = "e-m:e-p270:32:32-p271:32:32-p272:64:64-i64:64-i128:128-f80:128-n8:16:32:64-S128"
target triple = "x86_64-pc-linux-gnu"

%struct.redisServer = type { i32, i64, ptr, ptr, ptr, i32, i32, i32, i32, i32, ptr, ptr, ptr, ptr, ptr, i32, i32, i32, i32, i64, i32, i32, i32, i32, ptr, i32, i32, [41 x i8], i32, i64, i32, i32, i32, ptr, ptr, i32, i32, i64, ptr, ptr, ptr, ptr, [2 x i32], i32, i32, i32, i32, i32, i32, [16 x ptr], i32, ptr, ptr, i32, [8 x %struct.connListener], i32, %struct.connListener, ptr, ptr, ptr, ptr, ptr, ptr, ptr, ptr, ptr, ptr, i32, ptr, i32, ptr, [3 x %struct.pause_event], [256 x i8], ptr, i64, i32, i32, [128 x i32], i32, i32, i64, i32, i32, i32, i32, i32, i64, i64, i64, i64, i64, i64, i64, i64, i64, i64, double, i64, i64, i64, i64, i64, i64, i64, i64, i64, i64, i64, i64, i64, i64, i64, i64, i64, i64, i64, i64, i64, double, i64, i64, i64, i64, i64, ptr, i64, i64, i64, %struct.malloc_stats, i64, i64, i64, i64, i64, i64, i64, i64, i64, i64, i64, i64, double, [4 x i64], i64, i64, i64, i64, [128 x i64], [128 x i64], i64, i64, [7 x %struct.anon], i64, i64, i64, i64, i64, i64, [4 x %struct.durationStats], i32, i32, i32, i32, i32, i32, i32, i32, i32, i32, i32, i32, i64, i32, i32, i32, i32, i64, i64, i32, i32, i32, i32, i32, ptr, [3 x %struct.clientBufferLimitsConfig], i32, i32, i32, ptr, i32, i32, i32, i32, i32, i32, ptr, ptr, i32, i32, i64, i64, i64, i64, i64, i32, i32, ptr, i32, i32, i64, i64, i64, i64, i64, i32, i32, i64, i32, i32, i32, i32, i32, i32, i32, i32, ptr, i32, i64, i64, i64, i64, i32, ptr, i32, ptr, i32, i32, i32, i64, i64, i64, i64, i32, i32, i32, i32, i32, i32, ptr, i32, i32, ptr, i32, i32, i32, [2 x i32], i32, %struct.redisOpArray, i32, ptr, i32, ptr, i32, i32, i32, i32, i32, i32, i32, [41 x i8], [41 x i8], i64, i64, i64, i64, i32, i32, ptr, i64, i64, %struct.replDataBuf, i64, i64, i32, i32, i32, i32, i32, i32, i32, i32, i32, i64, ptr, i64, ptr, ptr, ptr, i32, i32, ptr, ptr, i32, i32, i32, i64, i64, i64, i64, ptr, ptr, i32, ptr, i64, i32, i32, i32, i64, i32, i32, i32, i32, ptr, i32, i32, [41 x i8], i64, i32, ptr, i32, i32, i64, i64, i32, i32, i32, i32, i32, i64, [3 x i32], i32, i32, i32, [10 x i32], ptr, ptr, i32, i64, ptr, ptr, i32, i32, i32, i32, i64, i64, i64, i64, i64, i64, i64, i64, i64, i64, i32, i32, i64, i64, i32, i64, i64, i64, i64, i64, ptr, ptr, i32, ptr, i32, i32, i32, i32, i64, i64, ptr, ptr, i32, i32, i32, i32, i32, ptr, ptr, ptr, i32, i32, i32, i32, i32, i32, i32, i64, i32, i32, i64, i32, i32, i32, i32, i32, i32, i32, i64, ptr, ptr, i64, ptr, i32, %struct.aclInfo, i32, i64, i32, i32, i32, %struct.redisTLSContextConfig, ptr, ptr, ptr, ptr, ptr, i64, i32, ptr, i32, i32, i32, i64, i32, ptr }
%struct.connListener = type { [16 x i32], i32, ptr, i32, i32, ptr, ptr }
%struct.pause_event = type { i32, i64 }
%struct.malloc_stats = type { i64, i64, i64, i64, i64, i64, i64, i64, i64, i64, i64 }
%struct.anon = type { i64, i64, [16 x i64], i32 }
%struct.durationStats = type { i64, i64, i64 }
%struct.clientBufferLimitsConfig = type { i64, i64, i64 }
%struct.redisOpArray = type { ptr, i32, i32 }
%struct.replDataBuf = type { ptr, i64, i64, i64, i64 }
%struct.aclInfo = type { i64, i64, i64, i64 }
%struct.redisTLSContextConfig = type { ptr, ptr, ptr, ptr, ptr, ptr, ptr, ptr, ptr, ptr, ptr, ptr, i32, i32, i32, i32 }
%struct.redisObject = type { i32, i32, ptr }
%struct.quicklistNode = type { ptr, ptr, ptr, i64, i32 }
%struct.quicklist = type { ptr, ptr, i64, i64, i64, [0 x %struct.quicklistBookmark] }
%struct.quicklistBookmark = type { ptr, ptr }

@server = external global %struct.redisServer, align 8
@.str.7 = private unnamed_addr constant [4 x i8] c"_AD\00", align 1

; Function Attrs: nounwind uwtable
define dso_local i64 @scanLaterList(ptr noundef %0, ptr noundef %1, i64 noundef %2) #0 {
  %4 = alloca i64, align 8
  %5 = alloca ptr, align 8
  %6 = alloca ptr, align 8
  %7 = alloca i64, align 8
  %8 = alloca ptr, align 8
  %9 = alloca ptr, align 8
  %10 = alloca i64, align 8
  %11 = alloca i32, align 4
  %12 = alloca i32, align 4
  store ptr %0, ptr %5, align 8, !tbaa !42
  store ptr %1, ptr %6, align 8, !tbaa !111
  store i64 %2, ptr %7, align 8, !tbaa !113
  call void @llvm.lifetime.start.p0(i64 8, ptr %8) #10
  %13 = load ptr, ptr %5, align 8, !tbaa !42
  %14 = getelementptr inbounds nuw %struct.redisObject, ptr %13, i32 0, i32 2
  %15 = load ptr, ptr %14, align 8, !tbaa !47
  store ptr %15, ptr %8, align 8, !tbaa !97
  call void @llvm.lifetime.start.p0(i64 8, ptr %9) #10
  call void @llvm.lifetime.start.p0(i64 8, ptr %10) #10
  store i64 0, ptr %10, align 8, !tbaa !39
  call void @llvm.lifetime.start.p0(i64 4, ptr %11) #10
  store i32 0, ptr %11, align 4, !tbaa !44
  %16 = load ptr, ptr %5, align 8, !tbaa !42
  %17 = load i32, ptr %16, align 8
  %18 = and i32 %17, 15
  %19 = icmp ne i32 %18, 1
  br i1 %19, label %26, label %20

20:                                               ; preds = %3
  %21 = load ptr, ptr %5, align 8, !tbaa !42
  %22 = load i32, ptr %21, align 8
  %23 = lshr i32 %22, 4
  %24 = and i32 %23, 15
  %25 = icmp ne i32 %24, 9
  br i1 %25, label %26, label %27

26:                                               ; preds = %20, %3
  store i64 0, ptr %4, align 8
  store i32 1, ptr %12, align 4
  br label %90

27:                                               ; preds = %20
  %28 = load ptr, ptr %6, align 8, !tbaa !111
  %29 = load i64, ptr %28, align 8, !tbaa !39
  %30 = icmp eq i64 %29, 0
  br i1 %30, label %31, label %35

31:                                               ; preds = %27
  %32 = load ptr, ptr %8, align 8, !tbaa !97
  %33 = getelementptr inbounds nuw %struct.quicklist, ptr %32, i32 0, i32 0
  %34 = load ptr, ptr %33, align 8, !tbaa !101
  store ptr %34, ptr %9, align 8, !tbaa !101
  br label %46

35:                                               ; preds = %27
  %36 = load ptr, ptr %8, align 8, !tbaa !97
  %37 = call ptr @quicklistBookmarkFind(ptr noundef %36, ptr noundef @.str.7)
  store ptr %37, ptr %9, align 8, !tbaa !101
  %38 = load ptr, ptr %9, align 8, !tbaa !101
  %39 = icmp ne ptr %38, null
  br i1 %39, label %42, label %40

40:                                               ; preds = %35
  %41 = load ptr, ptr %6, align 8, !tbaa !111
  store i64 0, ptr %41, align 8, !tbaa !39
  store i64 0, ptr %4, align 8
  store i32 1, ptr %12, align 4
  br label %90

42:                                               ; preds = %35
  %43 = load ptr, ptr %9, align 8, !tbaa !101
  %44 = getelementptr inbounds nuw %struct.quicklistNode, ptr %43, i32 0, i32 1
  %45 = load ptr, ptr %44, align 8, !tbaa !105
  store ptr %45, ptr %9, align 8, !tbaa !101
  br label %46

46:                                               ; preds = %42, %31
  %47 = load ptr, ptr %6, align 8, !tbaa !111
  %48 = load i64, ptr %47, align 8, !tbaa !39
  %49 = add i64 %48, 1
  store i64 %49, ptr %47, align 8, !tbaa !39
  br label %50

50:                                               ; preds = %78, %46
  %51 = load ptr, ptr %9, align 8, !tbaa !101
  %52 = icmp ne ptr %51, null
  br i1 %52, label %53, label %82

53:                                               ; preds = %50
  %54 = load ptr, ptr %8, align 8, !tbaa !97
  call void @activeDefragQuickListNode(ptr noundef %54, ptr noundef %9)
  %55 = load i64, ptr getelementptr inbounds nuw (%struct.redisServer, ptr @server, i32 0, i32 110), align 8, !tbaa !114
  %56 = add nsw i64 %55, 1
  store i64 %56, ptr getelementptr inbounds nuw (%struct.redisServer, ptr @server, i32 0, i32 110), align 8, !tbaa !114
  %57 = load i64, ptr %10, align 8, !tbaa !39
  %58 = add nsw i64 %57, 1
  store i64 %58, ptr %10, align 8, !tbaa !39
  %59 = icmp sgt i64 %58, 128
  br i1 %59, label %60, label %78

60:                                               ; preds = %53
  %61 = load i32, ptr %11, align 4, !tbaa !44
  %62 = icmp ne i32 %61, 0
  br i1 %62, label %78, label %63

63:                                               ; preds = %60
  %64 = call i64 @ustime()
  %65 = load i64, ptr %7, align 8, !tbaa !113
  %66 = icmp sgt i64 %64, %65
  br i1 %66, label %67, label %77

67:                                               ; preds = %63
  %68 = load ptr, ptr %9, align 8, !tbaa !101
  %69 = call i32 @quicklistBookmarkCreate(ptr noundef %8, ptr noundef @.str.7, ptr noundef %68)
  %70 = icmp ne i32 %69, 0
  br i1 %70, label %72, label %71

71:                                               ; preds = %67
  store i32 1, ptr %11, align 4, !tbaa !44
  br label %76

72:                                               ; preds = %67
  %73 = load ptr, ptr %8, align 8, !tbaa !97
  %74 = load ptr, ptr %5, align 8, !tbaa !42
  %75 = getelementptr inbounds nuw %struct.redisObject, ptr %74, i32 0, i32 2
  store ptr %73, ptr %75, align 8, !tbaa !47
  store i64 1, ptr %4, align 8
  store i32 1, ptr %12, align 4
  br label %90

76:                                               ; preds = %71
  br label %77

77:                                               ; preds = %76, %63
  store i64 0, ptr %10, align 8, !tbaa !39
  br label %78

78:                                               ; preds = %77, %60, %53
  %79 = load ptr, ptr %9, align 8, !tbaa !101
  %80 = getelementptr inbounds nuw %struct.quicklistNode, ptr %79, i32 0, i32 1
  %81 = load ptr, ptr %80, align 8, !tbaa !105
  store ptr %81, ptr %9, align 8, !tbaa !101
  br label %50, !llvm.loop !115

82:                                               ; preds = %50
  %83 = load ptr, ptr %8, align 8, !tbaa !97
  %84 = call i32 @quicklistBookmarkDelete(ptr noundef %83, ptr noundef @.str.7)
  %85 = load ptr, ptr %6, align 8, !tbaa !111
  store i64 0, ptr %85, align 8, !tbaa !39
  %86 = load i32, ptr %11, align 4, !tbaa !44
  %87 = icmp ne i32 %86, 0
  %88 = select i1 %87, i32 1, i32 0
  %89 = sext i32 %88 to i64
  store i64 %89, ptr %4, align 8
  store i32 1, ptr %12, align 4
  br label %90

90:                                               ; preds = %82, %72, %40, %26
  call void @llvm.lifetime.end.p0(i64 4, ptr %11) #10
  call void @llvm.lifetime.end.p0(i64 8, ptr %10) #10
  call void @llvm.lifetime.end.p0(i64 8, ptr %9) #10
  call void @llvm.lifetime.end.p0(i64 8, ptr %8) #10
  %91 = load i64, ptr %4, align 8
  ret i64 %91
}