; Function Attrs: nounwind uwtable
define dso_local range(i64 0, 2) i64 @scanLaterList(ptr noundef captures(none) %0, ptr noundef captures(none) %1, i64 noundef %2) local_unnamed_addr #0 {
  %4 = alloca ptr, align 8
  %5 = alloca ptr, align 8
  call void @llvm.lifetime.start.p0(i64 8, ptr nonnull %4) #10
  %6 = getelementptr inbounds nuw i8, ptr %0, i64 8
  %7 = load ptr, ptr %6, align 8, !tbaa !41
  store ptr %7, ptr %4, align 8, !tbaa !92
  call void @llvm.lifetime.start.p0(i64 8, ptr nonnull %5) #10
  %8 = load i32, ptr %0, align 8
  %9 = and i32 %8, 255
  %or.cond22 = icmp eq i32 %9, 145
  br i1 %or.cond22, label %10, label %41

10:                                               ; preds = %3
  %11 = load i64, ptr %1, align 8, !tbaa !94
  %12 = icmp eq i64 %11, 0
  br i1 %12, label %19, label %13

13:                                               ; preds = %10
  %14 = tail call ptr @quicklistBookmarkFind(ptr noundef %7, ptr noundef nonnull @.str.7) #10
  %.not18 = icmp eq ptr %14, null
  br i1 %.not18, label %15, label %16

15:                                               ; preds = %13
  store i64 0, ptr %1, align 8, !tbaa !94
  br label %41

16:                                               ; preds = %13
  %17 = getelementptr inbounds nuw i8, ptr %14, i64 8
  %.pre = load i64, ptr %1, align 8, !tbaa !94
  %18 = add i64 %.pre, 1
  br label %19

19:                                               ; preds = %10, %16
  %20 = phi i64 [ %18, %16 ], [ 1, %10 ]
  %storemerge.in = phi ptr [ %17, %16 ], [ %7, %10 ]
  %storemerge = load ptr, ptr %storemerge.in, align 8, !tbaa !83
  store ptr %storemerge, ptr %5, align 8, !tbaa !83
  store i64 %20, ptr %1, align 8, !tbaa !94
  %.not1924 = icmp eq ptr %storemerge, null
  br i1 %.not1924, label %._crit_edge, label %.lr.ph

.lr.ph:                                           ; preds = %19, %34
  %.026 = phi i32 [ %.1, %34 ], [ 0, %19 ]
  %.01325 = phi i64 [ %.114, %34 ], [ 0, %19 ]
  %21 = load ptr, ptr %4, align 8, !tbaa !92
  call void @activeDefragQuickListNode(ptr noundef %21, ptr noundef nonnull %5)
  %22 = load i64, ptr getelementptr inbounds nuw (i8, ptr @server, i64 2616), align 8, !tbaa !95
  %23 = add nsw i64 %22, 1
  store i64 %23, ptr getelementptr inbounds nuw (i8, ptr @server, i64 2616), align 8, !tbaa !95
  %24 = icmp slt i64 %.01325, 128
  %25 = icmp ne i32 %.026, 0
  %or.cond = select i1 %24, i1 true, i1 %25
  br i1 %or.cond, label %.lr.ph._crit_edge, label %27

.lr.ph._crit_edge:                                ; preds = %.lr.ph
  %26 = add nsw i64 %.01325, 1
  %.pre27 = load ptr, ptr %5, align 8, !tbaa !83
  br label %34

27:                                               ; preds = %.lr.ph
  %28 = call i64 @ustime() #10
  %29 = icmp sgt i64 %28, %2
  %.pre28 = load ptr, ptr %5, align 8, !tbaa !83
  br i1 %29, label %30, label %34

30:                                               ; preds = %27
  %31 = call i32 @quicklistBookmarkCreate(ptr noundef nonnull %4, ptr noundef nonnull @.str.7, ptr noundef %.pre28) #10
  %.not21 = icmp eq i32 %31, 0
  br i1 %.not21, label %34, label %32

32:                                               ; preds = %30
  %33 = load ptr, ptr %4, align 8, !tbaa !92
  store ptr %33, ptr %6, align 8, !tbaa !41
  br label %41

34:                                               ; preds = %.lr.ph._crit_edge, %27, %30
  %35 = phi ptr [ %.pre27, %.lr.ph._crit_edge ], [ %.pre28, %30 ], [ %.pre28, %27 ]
  %.114 = phi i64 [ %26, %.lr.ph._crit_edge ], [ 0, %30 ], [ 0, %27 ]
  %.1 = phi i32 [ %.026, %.lr.ph._crit_edge ], [ 1, %30 ], [ 0, %27 ]
  %36 = getelementptr inbounds nuw i8, ptr %35, i64 8
  %37 = load ptr, ptr %36, align 8, !tbaa !87
  store ptr %37, ptr %5, align 8, !tbaa !83
  %.not19 = icmp eq ptr %37, null
  br i1 %.not19, label %._crit_edge.loopexit, label %.lr.ph, !llvm.loop !96

._crit_edge.loopexit:                             ; preds = %34
  %.pre29 = load ptr, ptr %4, align 8, !tbaa !92
  %38 = zext nneg i32 %.1 to i64
  br label %._crit_edge

._crit_edge:                                      ; preds = %._crit_edge.loopexit, %19
  %39 = phi ptr [ %7, %19 ], [ %.pre29, %._crit_edge.loopexit ]
  %.0.lcssa = phi i64 [ 0, %19 ], [ %38, %._crit_edge.loopexit ]
  %40 = call i32 @quicklistBookmarkDelete(ptr noundef %39, ptr noundef nonnull @.str.7) #10
  store i64 0, ptr %1, align 8, !tbaa !94
  br label %41

41:                                               ; preds = %3, %._crit_edge, %32, %15
  %.015 = phi i64 [ 1, %32 ], [ %.0.lcssa, %._crit_edge ], [ 0, %15 ], [ 0, %3 ]
  call void @llvm.lifetime.end.p0(i64 8, ptr nonnull %5) #10
  call void @llvm.lifetime.end.p0(i64 8, ptr nonnull %4) #10
  ret i64 %.015
}